Certificate:
    Data:
        Version: 3 (0x2)
        Serial Number:
            60:56:c5:4b:23:40:5b:64:d4:ed:25:da:d9:d6:1e:1e
    Signature Algorithm: sha256WithRSAEncryption
        Issuer: C=DE, O=Deutscher Sparkassen Verlag GmbH, OU=S-TRUST Certification Services, CN=S-TRUST Universal Root CA
        Validity
            Not Before: Oct 22 00:00:00 2013 GMT
            Not After : Oct 21 23:59:59 2038 GMT
        Subject: C=DE, O=Deutscher Sparkassen Verlag GmbH, OU=S-TRUST Certification Services, CN=S-TRUST Universal Root CA
        Subject Public Key Info:
            Public Key Algorithm: rsaEncryption
                Public-Key: (2048 bit)
                Modulus:
                    00:a8:e3:0b:df:11:37:85:82:9a:b5:6c:66:7c:61:
                    3f:c0:47:1a:1d:46:e3:b0:55:64:e5:b8:82:39:28:
                    07:7e:17:ff:f4:9b:8a:f0:91:81:ea:38:3f:21:78:
                    6c:48:ec:6b:2f:a2:d3:8a:72:b2:a7:d7:d9:ea:7f:
                    b4:c0:49:6b:30:25:89:8c:eb:b7:d5:40:61:98:e2:
                    dc:3c:20:92:cd:65:4a:72:9f:1a:8e:8c:fa:25:15:
                    bf:f3:21:83:28:0d:8b:af:59:11:82:43:5c:9b:4d:
                    25:51:7f:58:18:63:60:3b:b3:b5:8a:8b:58:63:37:
                    48:48:90:44:c2:40:dd:5d:f7:43:69:29:98:5c:12:
                    65:5e:ab:90:92:4b:66:df:d5:75:12:53:54:18:a6:
                    de:8a:d6:bb:57:03:39:59:99:18:05:0c:f9:fd:15:
                    c6:90:64:46:17:82:d7:c2:4a:41:3d:fd:00:be:57:
                    72:18:94:77:1b:53:5a:89:01:f6:33:72:0e:93:3a:
                    dc:e8:1e:fd:05:05:d6:bc:73:e0:88:dc:ab:4f:ec:
                    b5:18:86:4f:79:84:0e:48:2a:66:2a:dd:32:c8:78:
                    65:c8:0b:9d:58:01:05:71:ed:81:f5:68:17:6e:cb:
                    0d:b4:4b:d8:a1:ec:ae:38:eb:1c:58:2f:a1:65:03:
                    34:2f
                Exponent: 65537 (0x10001)
        X509v3 extensions:
            X509v3 Basic Constraints: critical
                CA:TRUE
            X509v3 Key Usage: critical
                Certificate Sign, CRL Sign
            X509v3 Subject Key Identifier: 
                9A:7D:D7:EB:EB:7F:54:98:45:29:B4:20:AB:6D:0B:96:23:19:A4:C2
    Signature Algorithm: sha256WithRSAEncryption
         4e:96:12:db:7e:77:5e:92:27:9e:21:17:18:82:76:d8:3f:bc:
         a5:09:04:66:88:89:ad:db:55:b3:33:6a:c6:65:c4:8f:4d:f3:
         32:36:dc:79:04:96:a9:77:32:d1:97:f5:18:6b:8c:ba:ed:ce:
         11:d0:44:c7:92:f1:b4:44:8e:ed:88:52:48:9e:d5:fd:59:f8:
         a3:1e:51:fb:01:52:e5:5f:e5:7a:dd:aa:24:4f:22:8b:dd:76:
         46:f6:a5:a0:0f:35:d8:ca:0f:98:b9:30:5d:20:6f:c2:81:1e:
         bd:bd:c0:fe:15:d3:38:2a:09:93:98:27:1b:93:7b:d0:2b:34:
         5e:68:a5:15:4f:d1:52:c3:a0:ca:a0:83:45:1d:f5:f5:b7:59:
         73:5d:59:01:8f:aa:c2:47:2f:14:71:d5:29:e3:10:b5:47:93:
         25:cc:23:29:da:b7:72:d8:91:d4:ec:1b:48:8a:22:e4:c1:2a:
         f7:3a:68:93:9f:45:19:6e:43:b7:cc:fe:b8:91:9a:61:1a:36:
         69:63:64:92:28:f3:6f:61:92:85:13:9f:c9:07:2c:8b:57:dc:
         eb:9e:79:d5:c2:de:08:d5:54:b2:57:4e:2a:32:8d:a1:e2:3a:
         d1:10:20:22:39:7d:34:45:6f:71:3b:c3:1d:fc:ff:b2:4f:a8:
         e2:f6:30:1e
SHA1 Fingerprint=1B:3D:11:14:EA:7A:0F:95:58:54:41:95:BF:6B:25:82:AB:40:CE:9A
-----BEGIN CERTIFICATE-----
MIID2DCCAsCgAwIBAgIQYFbFSyNAW2TU7SXa2dYeHjANBgkqhkiG9w0BAQsFADCB
hTELMAkGA1UEBhMCREUxKTAnBgNVBAoTIERldXRzY2hlciBTcGFya2Fzc2VuIFZl
cmxhZyBHbWJIMScwJQYDVQQLEx5TLVRSVVNUIENlcnRpZmljYXRpb24gU2Vydmlj
ZXMxIjAgBgNVBAMTGVMtVFJVU1QgVW5pdmVyc2FsIFJvb3QgQ0EwHhcNMTMxMDIy
MDAwMDAwWhcNMzgxMDIxMjM1OTU5WjCBhTELMAkGA1UEBhMCREUxKTAnBgNVBAoT
IERldXRzY2hlciBTcGFya2Fzc2VuIFZlcmxhZyBHbWJIMScwJQYDVQQLEx5TLVRS
VVNUIENlcnRpZmljYXRpb24gU2VydmljZXMxIjAgBgNVBAMTGVMtVFJVU1QgVW5p
dmVyc2FsIFJvb3QgQ0EwggEiMA0GCSqGSIb3DQEBAQUAA4IBDwAwggEKAoIBAQCo
4wvfETeFgpq1bGZ8YT/ARxodRuOwVWTluII5KAd+F//0m4rwkYHqOD8heGxI7Gsv
otOKcrKn19nqf7TASWswJYmM67fVQGGY4tw8IJLNZUpynxqOjPolFb/zIYMoDYuv
WRGCQ1ybTSVRf1gYY2A7s7WKi1hjN0hIkETCQN1d90NpKZhcEmVeq5CSS2bf1XUS
U1QYpt6K1rtXAzlZmRgFDPn9FcaQZEYXgtfCSkE9/QC+V3IYlHcbU1qJAfYzcg6T
OtzoHv0FBda8c+CI3KtP7LUYhk95hA5IKmYq3TLIeGXIC51YAQVx7YH1aBduyw20
S9ih7K446xxYL6FlAzQvAgMBAAGjQjBAMA8GA1UdEwEB/wQFMAMBAf8wDgYDVR0P
AQH/BAQDAgEGMB0GA1UdDgQWBBSafdfr639UmEUptCCrbQuWIxmkwjANBgkqhkiG
9w0BAQsFAAOCAQEATpYS2353XpInniEXGIJ22D+8pQkEZoiJrdtVszNqxmXEj03z
MjbceQSWqXcy0Zf1GGuMuu3OEdBEx5LxtESO7YhSSJ7V/Vn4ox5R+wFS5V/let2q
JE8ii912RvaloA812MoPmLkwXSBvwoEevb3A/hXTOCoJk5gnG5N70Cs0XmilFU/R
UsOgyqCDRR319bdZc11ZAY+qwkcvFHHVKeMQtUeTJcwjKdq3ctiR1OwbSIoi5MEq
9zpok59FGW5Dt8z+uJGaYRo2aWNkkijzb2GShROfyQcsi1fc65551cLeCNVUsldO
KjKNoeI60RAgIjl9NEVvcTvDHfz/sk+o4vYwHg==
-----END CERTIFICATE-----


